; ModuleID = '10/1083.c'
source_filename = "10/1083.c"
target datalayout = "e-m:e-p270:32:32-p271:32:32-p272:64:64-i64:64-f80:128-n8:16:32:64-S128"
target triple = "x86_64-pc-linux-gnu"

@.str = private unnamed_addr constant [3 x i8] c"%d\00", align 1

; Function Attrs: noinline nounwind uwtable
define dso_local i32 @D(i32* %0, i32 %1, i32 %2) #0 {
  %4 = alloca i32*, align 8
  %5 = alloca i32, align 4
  %6 = alloca i32, align 4
  %7 = alloca i32, align 4
  %8 = alloca i32, align 4
  %9 = alloca i32, align 4
  store i32* %0, i32** %4, align 8
  store i32 %1, i32* %5, align 4
  store i32 %2, i32* %6, align 4
  store i32 1, i32* %8, align 4
  %10 = load i32, i32* %5, align 4
  %11 = load i32, i32* %6, align 4
  %12 = icmp slt i32 %10, %11
  br i1 %12, label %13, label %52

13:                                               ; preds = %3
  %14 = load i32, i32* %5, align 4
  %15 = add nsw i32 %14, 1
  store i32 %15, i32* %7, align 4
  br label %16

16:                                               ; preds = %48, %13
  %17 = load i32, i32* %7, align 4
  %18 = load i32, i32* %6, align 4
  %19 = add nsw i32 %18, 1
  %20 = icmp slt i32 %17, %19
  br i1 %20, label %21, label %51

21:                                               ; preds = %16
  %22 = load i32*, i32** %4, align 8
  %23 = load i32, i32* %7, align 4
  %24 = sub nsw i32 %23, 1
  %25 = sext i32 %24 to i64
  %26 = getelementptr inbounds i32, i32* %22, i64 %25
  %27 = load i32, i32* %26, align 4
  %28 = load i32*, i32** %4, align 8
  %29 = load i32, i32* %5, align 4
  %30 = sub nsw i32 %29, 1
  %31 = sext i32 %30 to i64
  %32 = getelementptr inbounds i32, i32* %28, i64 %31
  %33 = load i32, i32* %32, align 4
  %34 = icmp sle i32 %27, %33
  br i1 %34, label %35, label %47

35:                                               ; preds = %21
  %36 = load i32*, i32** %4, align 8
  %37 = load i32, i32* %7, align 4
  %38 = load i32, i32* %6, align 4
  %39 = call i32 @D(i32* %36, i32 %37, i32 %38)
  %40 = add nsw i32 %39, 1
  store i32 %40, i32* %9, align 4
  %41 = load i32, i32* %8, align 4
  %42 = load i32, i32* %9, align 4
  %43 = icmp slt i32 %41, %42
  br i1 %43, label %44, label %46

44:                                               ; preds = %35
  %45 = load i32, i32* %9, align 4
  store i32 %45, i32* %8, align 4
  br label %46

46:                                               ; preds = %44, %35
  br label %47

47:                                               ; preds = %46, %21
  br label %48

48:                                               ; preds = %47
  %49 = load i32, i32* %7, align 4
  %50 = add nsw i32 %49, 1
  store i32 %50, i32* %7, align 4
  br label %16

51:                                               ; preds = %16
  br label %52

52:                                               ; preds = %51, %3
  %53 = load i32, i32* %8, align 4
  ret i32 %53
}

; Function Attrs: noinline nounwind uwtable
define dso_local i32 @main() #0 {
  %1 = alloca i32, align 4
  %2 = alloca i32, align 4
  %3 = alloca i32, align 4
  %4 = alloca i32, align 4
  %5 = alloca [25 x i32], align 16
  %6 = alloca i32, align 4
  store i32 0, i32* %1, align 4
  store i32 1, i32* %4, align 4
  %7 = call i32 (i8*, ...) @__isoc99_scanf(i8* getelementptr inbounds ([3 x i8], [3 x i8]* @.str, i64 0, i64 0), i32* %3)
  store i32 0, i32* %2, align 4
  br label %8

8:                                                ; preds = %18, %0
  %9 = load i32, i32* %2, align 4
  %10 = load i32, i32* %3, align 4
  %11 = icmp slt i32 %9, %10
  br i1 %11, label %12, label %21

12:                                               ; preds = %8
  %13 = getelementptr inbounds [25 x i32], [25 x i32]* %5, i64 0, i64 0
  %14 = load i32, i32* %2, align 4
  %15 = sext i32 %14 to i64
  %16 = getelementptr inbounds i32, i32* %13, i64 %15
  %17 = call i32 (i8*, ...) @__isoc99_scanf(i8* getelementptr inbounds ([3 x i8], [3 x i8]* @.str, i64 0, i64 0), i32* %16)
  br label %18

18:                                               ; preds = %12
  %19 = load i32, i32* %2, align 4
  %20 = add nsw i32 %19, 1
  store i32 %20, i32* %2, align 4
  br label %8

21:                                               ; preds = %8
  store i32 0, i32* %2, align 4
  br label %22

22:                                               ; preds = %38, %21
  %23 = load i32, i32* %2, align 4
  %24 = load i32, i32* %3, align 4
  %25 = icmp slt i32 %23, %24
  br i1 %25, label %26, label %41

26:                                               ; preds = %22
  %27 = getelementptr inbounds [25 x i32], [25 x i32]* %5, i64 0, i64 0
  %28 = load i32, i32* %2, align 4
  %29 = add nsw i32 %28, 1
  %30 = load i32, i32* %3, align 4
  %31 = call i32 @D(i32* %27, i32 %29, i32 %30)
  store i32 %31, i32* %6, align 4
  %32 = load i32, i32* %4, align 4
  %33 = load i32, i32* %6, align 4
  %34 = icmp slt i32 %32, %33
  br i1 %34, label %35, label %37

35:                                               ; preds = %26
  %36 = load i32, i32* %6, align 4
  store i32 %36, i32* %4, align 4
  br label %37

37:                                               ; preds = %35, %26
  br label %38

38:                                               ; preds = %37
  %39 = load i32, i32* %2, align 4
  %40 = add nsw i32 %39, 1
  store i32 %40, i32* %2, align 4
  br label %22

41:                                               ; preds = %22
  %42 = load i32, i32* %4, align 4
  %43 = call i32 (i8*, ...) @printf(i8* getelementptr inbounds ([3 x i8], [3 x i8]* @.str, i64 0, i64 0), i32 %42)
  ret i32 0
}

declare dso_local i32 @__isoc99_scanf(i8*, ...) #1

declare dso_local i32 @printf(i8*, ...) #1


!llvm.module.flags = !{!0}
!llvm.ident = !{!1}

!0 = !{i32 1, !"wchar_size", i32 4}
!1 = !{!"clang version 10.0.0-4ubuntu1 "}
